target datalayout = "e-m:e-p270:32:32-p271:32:32-p272:64:64-i64:64-i128:128-f80:128-n8:16:32:64-S128"
target triple = "x86_64-pc-linux-gnu"

; Function Attrs: nounwind uwtable
define i32 @Gia_ManBuildFromMini(ptr noundef %0, ptr noundef %1, ptr noundef %2, ptr noundef %3, ptr noundef %4, i32 noundef %5, i32 noundef %6) #0 {
  %8 = alloca ptr, align 8
  %9 = alloca ptr, align 8
  %10 = alloca ptr, align 8
  %11 = alloca ptr, align 8
  %12 = alloca ptr, align 8
  %13 = alloca i32, align 4
  %14 = alloca i32, align 4
  store ptr %0, ptr %8, align 8, !tbaa !40
  store ptr %1, ptr %9, align 8, !tbaa !129
  store ptr %2, ptr %10, align 8, !tbaa !169
  store ptr %3, ptr %11, align 8, !tbaa !74
  store ptr %4, ptr %12, align 8, !tbaa !74
  store i32 %5, ptr %13, align 4, !tbaa !42
  store i32 %6, ptr %14, align 4, !tbaa !42
  %15 = load i32, ptr %14, align 4, !tbaa !42
  %16 = icmp ne i32 %15, 0
  br i1 %16, label %17, label %22

17:                                               ; preds = %7
  %18 = load ptr, ptr %9, align 8, !tbaa !129
  %19 = load ptr, ptr %10, align 8, !tbaa !169
  %20 = load ptr, ptr %12, align 8, !tbaa !74
  %21 = call i32 @If_CutDsdBalanceEval(ptr noundef %18, ptr noundef %19, ptr noundef %20)
  br label %27

22:                                               ; preds = %7
  %23 = load ptr, ptr %9, align 8, !tbaa !129
  %24 = load ptr, ptr %10, align 8, !tbaa !169
  %25 = load ptr, ptr %12, align 8, !tbaa !74
  %26 = call i32 @If_CutSopBalanceEval(ptr noundef %23, ptr noundef %24, ptr noundef %25)
  br label %27

27:                                               ; preds = %22, %17
  %28 = load ptr, ptr %8, align 8, !tbaa !40
  %29 = load ptr, ptr %11, align 8, !tbaa !74
  %30 = load ptr, ptr %12, align 8, !tbaa !74
  %31 = load i32, ptr %13, align 4, !tbaa !42
  %32 = call i32 @Gia_ManBuildFromMiniInt(ptr noundef %28, ptr noundef %29, ptr noundef %30, i32 noundef %31)
  ret i32 %32
}