; Function Attrs: nounwind uwtable
define i32 @Gia_ManBuildFromMini(ptr noundef %0, ptr noundef %1, ptr noundef %2, ptr noundef readonly captures(none) %3, ptr noundef %4, i32 noundef %5, i32 noundef %6) local_unnamed_addr #4 {
  %.not = icmp eq i32 %6, 0
  br i1 %.not, label %10, label %8

8:                                                ; preds = %7
  %9 = tail call i32 @If_CutDsdBalanceEval(ptr noundef %1, ptr noundef %2, ptr noundef %4) #27
  br label %12

10:                                               ; preds = %7
  %11 = tail call i32 @If_CutSopBalanceEval(ptr noundef %1, ptr noundef %2, ptr noundef %4) #27
  br label %12

12:                                               ; preds = %10, %8
  %13 = tail call i32 @Gia_ManBuildFromMiniInt(ptr noundef %0, ptr noundef %3, ptr noundef %4, i32 noundef %5)
  ret i32 %13
}